target datalayout = "e-m:e-p270:32:32-p271:32:32-p272:64:64-i64:64-i128:128-f80:128-n8:16:32:64-S128"
target triple = "x86_64-pc-linux-gnu"

%struct.LZ4HC_CCtx_internal = type { [32768 x i32], [65536 x i16], ptr, ptr, ptr, i32, i32, i32, i16, i8, i8, ptr }

; Function Attrs: nounwind uwtable
define dso_local void @LZ4_setCompressionLevel(ptr noundef %0, i32 noundef %1) #0 {
  %3 = alloca ptr, align 8
  %4 = alloca i32, align 4
  store ptr %0, ptr %3, align 8, !tbaa !34
  store i32 %1, ptr %4, align 4, !tbaa !9
  %5 = load i32, ptr %4, align 4, !tbaa !9
  %6 = icmp slt i32 %5, 1
  br i1 %6, label %7, label %8

7:                                                ; preds = %2
  store i32 9, ptr %4, align 4, !tbaa !9
  br label %8

8:                                                ; preds = %7, %2
  %9 = load i32, ptr %4, align 4, !tbaa !9
  %10 = icmp sgt i32 %9, 12
  br i1 %10, label %11, label %12

11:                                               ; preds = %8
  store i32 12, ptr %4, align 4, !tbaa !9
  br label %12

12:                                               ; preds = %11, %8
  %13 = load i32, ptr %4, align 4, !tbaa !9
  %14 = trunc i32 %13 to i16
  %15 = load ptr, ptr %3, align 8, !tbaa !34
  %16 = getelementptr inbounds nuw %struct.LZ4HC_CCtx_internal, ptr %15, i32 0, i32 8
  store i16 %14, ptr %16, align 4, !tbaa !31
  ret void
}