; Function Attrs: mustprogress nofree norecurse nosync nounwind willreturn memory(argmem: write) uwtable
define dso_local void @LZ4_setCompressionLevel(ptr noundef writeonly captures(none) initializes((262180, 262182)) %0, i32 noundef %1) local_unnamed_addr #7 {
  %3 = icmp slt i32 %1, 1
  %4 = tail call i32 @llvm.umin.i32(i32 %1, i32 12)
  %5 = trunc nuw nsw i32 %4 to i16
  %6 = select i1 %3, i16 9, i16 %5
  %7 = getelementptr inbounds nuw i8, ptr %0, i64 262180
  store i16 %6, ptr %7, align 4, !tbaa !26
  ret void
}